target datalayout = "e-m:e-p270:32:32-p271:32:32-p272:64:64-i64:64-i128:128-f80:128-n8:16:32:64-S128"
target triple = "x86_64-pc-linux-gnu"

%"struct.boost::urls::detail::url_impl" = type <{ ptr, [8 x i64], [7 x i64], i64, i64, [16 x i8], i16, [2 x i8], i32, i16, i8, [5 x i8] }>
%"class.boost::urls::detail::query_ref" = type <{ ptr, ptr, i64, i64, i64, i8, [7 x i8] }>

; Function Attrs: mustprogress nounwind uwtable
define noundef i64 @_ZNK5boost4urls6detail9query_ref6nparamEv(ptr noundef nonnull align 8 dereferenceable(41) %0) #1 align 2 {
  %2 = alloca i64, align 8
  %3 = alloca ptr, align 8
  store ptr %0, ptr %3, align 8, !tbaa !3
  %4 = load ptr, ptr %3, align 8
  %5 = getelementptr inbounds nuw %"class.boost::urls::detail::query_ref", ptr %4, i32 0, i32 0
  %6 = load ptr, ptr %5, align 8, !tbaa !48
  %7 = icmp ne ptr %6, null
  br i1 %7, label %8, label %13

8:                                                ; preds = %1
  %9 = getelementptr inbounds nuw %"class.boost::urls::detail::query_ref", ptr %4, i32 0, i32 0
  %10 = load ptr, ptr %9, align 8, !tbaa !48
  %11 = getelementptr inbounds nuw %"struct.boost::urls::detail::url_impl", ptr %10, i32 0, i32 4
  %12 = load i64, ptr %11, align 8, !tbaa !35
  store i64 %12, ptr %2, align 8
  br label %16

13:                                               ; preds = %1
  %14 = getelementptr inbounds nuw %"class.boost::urls::detail::query_ref", ptr %4, i32 0, i32 3
  %15 = load i64, ptr %14, align 8, !tbaa !53
  store i64 %15, ptr %2, align 8
  br label %16

16:                                               ; preds = %13, %8
  %17 = load i64, ptr %2, align 8
  ret i64 %17
}